target datalayout = "e-m:e-p270:32:32-p271:32:32-p272:64:64-i64:64-i128:128-f80:128-n8:16:32:64-S128"
target triple = "x86_64-pc-linux-gnu"

%struct.scan_ctx = type { ptr, i64, ptr, i64, ptr, i64, i64, [40 x i8], [160 x i8], i8 }

; Function Attrs: nounwind uwtable
define dso_local void @inithelpscan(ptr noundef %0, ptr noundef %1, ptr noundef %2, ptr noundef %3) #0 {
  %5 = alloca ptr, align 8
  %6 = alloca ptr, align 8
  %7 = alloca ptr, align 8
  %8 = alloca ptr, align 8
  store ptr %0, ptr %5, align 8, !tbaa !4
  store ptr %1, ptr %6, align 8, !tbaa !9
  store ptr %2, ptr %7, align 8, !tbaa !9
  store ptr %3, ptr %8, align 8, !tbaa !9
  %9 = load ptr, ptr %6, align 8, !tbaa !9
  %10 = load ptr, ptr %5, align 8, !tbaa !4
  %11 = getelementptr inbounds nuw %struct.scan_ctx, ptr %10, i32 0, i32 0
  store ptr %9, ptr %11, align 8, !tbaa !11
  %12 = load ptr, ptr %6, align 8, !tbaa !9
  %13 = call i64 @strlen(ptr noundef %12) #8
  %14 = load ptr, ptr %5, align 8, !tbaa !4
  %15 = getelementptr inbounds nuw %struct.scan_ctx, ptr %14, i32 0, i32 1
  store i64 %13, ptr %15, align 8, !tbaa !14
  %16 = load ptr, ptr %7, align 8, !tbaa !9
  %17 = load ptr, ptr %5, align 8, !tbaa !4
  %18 = getelementptr inbounds nuw %struct.scan_ctx, ptr %17, i32 0, i32 2
  store ptr %16, ptr %18, align 8, !tbaa !15
  %19 = load ptr, ptr %7, align 8, !tbaa !9
  %20 = call i64 @strlen(ptr noundef %19) #8
  %21 = load ptr, ptr %5, align 8, !tbaa !4
  %22 = getelementptr inbounds nuw %struct.scan_ctx, ptr %21, i32 0, i32 3
  store i64 %20, ptr %22, align 8, !tbaa !16
  %23 = load ptr, ptr %8, align 8, !tbaa !9
  %24 = load ptr, ptr %5, align 8, !tbaa !4
  %25 = getelementptr inbounds nuw %struct.scan_ctx, ptr %24, i32 0, i32 4
  store ptr %23, ptr %25, align 8, !tbaa !17
  %26 = load ptr, ptr %8, align 8, !tbaa !9
  %27 = call i64 @strlen(ptr noundef %26) #8
  %28 = load ptr, ptr %5, align 8, !tbaa !4
  %29 = getelementptr inbounds nuw %struct.scan_ctx, ptr %28, i32 0, i32 5
  store i64 %27, ptr %29, align 8, !tbaa !18
  br label %30

30:                                               ; preds = %4
  br label %31

31:                                               ; preds = %30
  %32 = load ptr, ptr %5, align 8, !tbaa !4
  %33 = getelementptr inbounds nuw %struct.scan_ctx, ptr %32, i32 0, i32 9
  store i8 0, ptr %33, align 8, !tbaa !19
  %34 = load ptr, ptr %5, align 8, !tbaa !4
  %35 = getelementptr inbounds nuw %struct.scan_ctx, ptr %34, i32 0, i32 6
  store i64 0, ptr %35, align 8, !tbaa !20
  %36 = load ptr, ptr %5, align 8, !tbaa !4
  %37 = getelementptr inbounds nuw %struct.scan_ctx, ptr %36, i32 0, i32 7
  %38 = getelementptr inbounds [40 x i8], ptr %37, i64 0, i64 0
  call void @llvm.memset.p0.i64(ptr align 8 %38, i8 0, i64 40, i1 false)
  ret void
}