; Function Attrs: mustprogress nofree nounwind willreturn memory(argmem: readwrite) uwtable
define dso_local void @inithelpscan(ptr noundef writeonly captures(none) initializes((0, 96), (256, 257)) %0, ptr noundef %1, ptr noundef %2, ptr noundef %3) local_unnamed_addr #0 {
  store ptr %1, ptr %0, align 8, !tbaa !4
  %5 = tail call i64 @strlen(ptr noundef nonnull dereferenceable(1) %1) #15
  %6 = getelementptr inbounds nuw i8, ptr %0, i64 8
  store i64 %5, ptr %6, align 8, !tbaa !11
  %7 = getelementptr inbounds nuw i8, ptr %0, i64 16
  store ptr %2, ptr %7, align 8, !tbaa !12
  %8 = tail call i64 @strlen(ptr noundef nonnull dereferenceable(1) %2) #15
  %9 = getelementptr inbounds nuw i8, ptr %0, i64 24
  store i64 %8, ptr %9, align 8, !tbaa !13
  %10 = getelementptr inbounds nuw i8, ptr %0, i64 32
  store ptr %3, ptr %10, align 8, !tbaa !14
  %11 = tail call i64 @strlen(ptr noundef nonnull dereferenceable(1) %3) #15
  %12 = getelementptr inbounds nuw i8, ptr %0, i64 40
  store i64 %11, ptr %12, align 8, !tbaa !15
  %13 = getelementptr inbounds nuw i8, ptr %0, i64 256
  store i8 0, ptr %13, align 8, !tbaa !16
  %14 = getelementptr inbounds nuw i8, ptr %0, i64 48
  tail call void @llvm.memset.p0.i64(ptr noundef nonnull align 8 dereferenceable(48) %14, i8 0, i64 48, i1 false)
  ret void
}